target datalayout = "e-m:e-p270:32:32-p271:32:32-p272:64:64-i64:64-i128:128-f80:128-n8:16:32:64-S128"
target triple = "x86_64-pc-linux-gnu"

%"class.Eigen::Map" = type <{ %"class.Eigen::MapBase", [8 x i8] }>
%"class.Eigen::MapBase" = type { ptr, %"class.Eigen::internal::variable_if_dynamic", %"class.Eigen::internal::variable_if_dynamic" }
%"class.Eigen::internal::variable_if_dynamic" = type { i64 }
%"class.Eigen::Stride" = type { [2 x i8] }
%"class.open3d::geometry::PointCloud" = type { %"class.open3d::geometry::Geometry3D", %"class.std::vector.57", %"class.std::vector.57", %"class.std::vector.57", %"class.std::vector.62" }
%"class.open3d::geometry::Geometry3D" = type { %"class.open3d::geometry::Geometry" }
%"class.open3d::geometry::Geometry" = type { ptr, i32, i32, %"class.std::__cxx11::basic_string" }
%"class.std::__cxx11::basic_string" = type { %"struct.std::__cxx11::basic_string<char>::_Alloc_hider", i64, %union.anon.50 }
%"struct.std::__cxx11::basic_string<char>::_Alloc_hider" = type { ptr }
%union.anon.50 = type { i64, [8 x i8] }
%"class.std::vector.57" = type { %"struct.std::_Vector_base.58" }
%"struct.std::_Vector_base.58" = type { %"struct.std::_Vector_base<Eigen::Matrix<double, 3, 1>, std::allocator<Eigen::Matrix<double, 3, 1>>>::_Vector_impl" }
%"struct.std::_Vector_base<Eigen::Matrix<double, 3, 1>, std::allocator<Eigen::Matrix<double, 3, 1>>>::_Vector_impl" = type { %"struct.std::_Vector_base<Eigen::Matrix<double, 3, 1>, std::allocator<Eigen::Matrix<double, 3, 1>>>::_Vector_impl_data" }
%"struct.std::_Vector_base<Eigen::Matrix<double, 3, 1>, std::allocator<Eigen::Matrix<double, 3, 1>>>::_Vector_impl_data" = type { ptr, ptr, ptr }
%"class.std::vector.62" = type { %"struct.std::_Vector_base.63" }
%"struct.std::_Vector_base.63" = type { %"struct.std::_Vector_base<Eigen::Matrix<double, 3, 3>, std::allocator<Eigen::Matrix<double, 3, 3>>>::_Vector_impl" }
%"struct.std::_Vector_base<Eigen::Matrix<double, 3, 3>, std::allocator<Eigen::Matrix<double, 3, 3>>>::_Vector_impl" = type { %"struct.std::_Vector_base<Eigen::Matrix<double, 3, 3>, std::allocator<Eigen::Matrix<double, 3, 3>>>::_Vector_impl_data" }
%"struct.std::_Vector_base<Eigen::Matrix<double, 3, 3>, std::allocator<Eigen::Matrix<double, 3, 3>>>::_Vector_impl_data" = type { ptr, ptr, ptr }
%"class.open3d::geometry::MeshBase" = type { %"class.open3d::geometry::Geometry3D", %"class.std::vector.57", %"class.std::vector.57", %"class.std::vector.57" }

@.str.6 = private unnamed_addr constant [127 x i8] c"generated/home/dtcxzyw/WorkSpace/Projects/compilers/llvm-opt-benchmark/bench/open3d/Open3D/cpp/open3d/geometry/KDTreeFlann.cpp\00", align 1
@__PRETTY_FUNCTION__._ZN6open3d8geometry11KDTreeFlann11SetGeometryERKNS0_8GeometryE = private unnamed_addr constant [66 x i8] c"bool open3d::geometry::KDTreeFlann::SetGeometry(const Geometry &)\00", align 1
@.str.7 = private unnamed_addr constant [54 x i8] c"[KDTreeFlann::SetGeometry] Unsupported Geometry type.\00", align 1

; Function Attrs: inlinehint mustprogress nounwind ssp uwtable
define linkonce_odr noundef i64 @_ZN5Eigen8internal19variable_if_dynamicIlLi0EE5valueEv() #4 comdat align 2 {
  ret i64 0
}

; Function Attrs: mustprogress nounwind ssp uwtable
define linkonce_odr void @_ZN5Eigen9DenseBaseINS_3MapIKNS_6MatrixIdLin1ELin1ELi0ELin1ELin1EEELi0ENS_6StrideILi0ELi0EEEEEEC2Ev(ptr noundef nonnull align 1 dereferenceable(1) %0) unnamed_addr #1 comdat align 2 {
  %2 = alloca ptr, align 8
  store ptr %0, ptr %2, align 8, !tbaa !332
  ret void
}

; Function Attrs: inlinehint mustprogress nounwind ssp uwtable
define linkonce_odr noundef i64 @_ZNK5Eigen6StrideILi0ELi0EE5innerEv(ptr noundef nonnull align 1 dereferenceable(2) %0) #4 comdat align 2 {
  %2 = alloca ptr, align 8
  store ptr %0, ptr %2, align 8, !tbaa !318
  %3 = call noundef i64 @_ZN5Eigen8internal19variable_if_dynamicIlLi0EE5valueEv()
  ret i64 %3
}

; Function Attrs: inlinehint mustprogress ssp uwtable
define linkonce_odr noundef i64 @_ZNK5Eigen6StrideILi0ELi0EE5outerEv(ptr noundef nonnull align 1 dereferenceable(2) %0) #6 comdat align 2 {
  %2 = alloca ptr, align 8
  store ptr %0, ptr %2, align 8, !tbaa !318
  %3 = call noundef i64 @_ZN5Eigen8internal19variable_if_dynamicIlLi0EE5valueEv()
  ret i64 %3
}

; Function Attrs: mustprogress nounwind ssp uwtable
define linkonce_odr void @_ZNK5Eigen7MapBaseINS_3MapIKNS_6MatrixIdLin1ELin1ELi0ELin1ELin1EEELi0ENS_6StrideILi0ELi0EEEEELi0EE11checkSanityIS7_EEvNS_8internal9enable_ifIXeqsr8internal6traitsIT_EE9AlignmentLi0EEPvE4typeE(ptr noundef nonnull align 8 dereferenceable(24) %0, ptr noundef %1) #1 comdat align 2 {
  %3 = alloca ptr, align 8
  %4 = alloca ptr, align 8
  store ptr %0, ptr %3, align 8, !tbaa !322
  store ptr %1, ptr %4, align 8, !tbaa !106
  ret void
}

; Function Attrs: inlinehint mustprogress nounwind ssp uwtable
define linkonce_odr void @_ZN5Eigen8internal19variable_if_dynamicIlLin1EEC2El(ptr noundef nonnull align 8 dereferenceable(8) %0, i64 noundef %1) unnamed_addr #4 comdat align 2 {
  %3 = alloca ptr, align 8
  %4 = alloca i64, align 8
  store ptr %0, ptr %3, align 8, !tbaa !329
  store i64 %1, ptr %4, align 8, !tbaa !60
  %5 = load ptr, ptr %3, align 8
  %6 = getelementptr inbounds nuw %"class.Eigen::internal::variable_if_dynamic", ptr %5, i32 0, i32 0
  %7 = load i64, ptr %4, align 8, !tbaa !60
  store i64 %7, ptr %6, align 8, !tbaa !331
  ret void
}

; Function Attrs: mustprogress ssp uwtable
define linkonce_odr void @_ZN5Eigen10MatrixBaseINS_3MapIKNS_6MatrixIdLin1ELin1ELi0ELin1ELin1EEELi0ENS_6StrideILi0ELi0EEEEEEC2Ev(ptr noundef nonnull align 1 dereferenceable(1) %0) unnamed_addr #3 comdat align 2 {
  %2 = alloca ptr, align 8
  store ptr %0, ptr %2, align 8, !tbaa !327
  %3 = load ptr, ptr %2, align 8
  call void @_ZN5Eigen9DenseBaseINS_3MapIKNS_6MatrixIdLin1ELin1ELi0ELin1ELin1EEELi0ENS_6StrideILi0ELi0EEEEEEC2Ev(ptr noundef nonnull align 1 dereferenceable(1) %3)
  ret void
}

; Function Attrs: inlinehint mustprogress nounwind ssp uwtable
define linkonce_odr void @_ZN5Eigen8internal22ignore_unused_variableIlEEvRKT_(ptr noundef nonnull align 8 dereferenceable(8) %0) #4 comdat {
  %2 = alloca ptr, align 8
  store ptr %0, ptr %2, align 8, !tbaa !77
  ret void
}

; Function Attrs: mustprogress ssp uwtable
define linkonce_odr void @_ZN5Eigen6StrideILi0ELi0EEC2ERKS1_(ptr noundef nonnull align 1 dereferenceable(2) %0, ptr noundef nonnull align 1 dereferenceable(2) %1) unnamed_addr #3 comdat align 2 {
  %3 = alloca ptr, align 8
  %4 = alloca ptr, align 8
  store ptr %0, ptr %3, align 8, !tbaa !318
  store ptr %1, ptr %4, align 8, !tbaa !318
  %5 = load ptr, ptr %3, align 8
  %6 = load ptr, ptr %4, align 8, !tbaa !318
  %7 = call noundef i64 @_ZNK5Eigen6StrideILi0ELi0EE5outerEv(ptr noundef nonnull align 1 dereferenceable(2) %6)
  call void @_ZN5Eigen8internal19variable_if_dynamicIlLi0EEC2El(ptr noundef nonnull align 1 dereferenceable(1) %5, i64 noundef %7)
  %8 = getelementptr inbounds i8, ptr %5, i64 1
  %9 = load ptr, ptr %4, align 8, !tbaa !318
  %10 = call noundef i64 @_ZNK5Eigen6StrideILi0ELi0EE5innerEv(ptr noundef nonnull align 1 dereferenceable(2) %9)
  call void @_ZN5Eigen8internal19variable_if_dynamicIlLi0EEC2El(ptr noundef nonnull align 1 dereferenceable(1) %8, i64 noundef %10)
  ret void
}

; Function Attrs: inlinehint mustprogress ssp uwtable
define linkonce_odr void @_ZN5Eigen7MapBaseINS_3MapIKNS_6MatrixIdLin1ELin1ELi0ELin1ELin1EEELi0ENS_6StrideILi0ELi0EEEEELi0EEC2EPKdll(ptr noundef nonnull align 8 dereferenceable(24) %0, ptr noundef %1, i64 noundef %2, i64 noundef %3) unnamed_addr #6 comdat align 2 {
  %5 = alloca ptr, align 8
  %6 = alloca ptr, align 8
  %7 = alloca i64, align 8
  %8 = alloca i64, align 8
  store ptr %0, ptr %5, align 8, !tbaa !322
  store ptr %1, ptr %6, align 8, !tbaa !76
  store i64 %2, ptr %7, align 8, !tbaa !60
  store i64 %3, ptr %8, align 8, !tbaa !60
  %9 = load ptr, ptr %5, align 8
  call void @_ZN5Eigen10MatrixBaseINS_3MapIKNS_6MatrixIdLin1ELin1ELi0ELin1ELin1EEELi0ENS_6StrideILi0ELi0EEEEEEC2Ev(ptr noundef nonnull align 1 dereferenceable(1) %9)
  %10 = getelementptr inbounds nuw %"class.Eigen::MapBase", ptr %9, i32 0, i32 0
  %11 = load ptr, ptr %6, align 8, !tbaa !76
  store ptr %11, ptr %10, align 8, !tbaa !324
  %12 = getelementptr inbounds nuw %"class.Eigen::MapBase", ptr %9, i32 0, i32 1
  %13 = load i64, ptr %7, align 8, !tbaa !60
  call void @_ZN5Eigen8internal19variable_if_dynamicIlLin1EEC2El(ptr noundef nonnull align 8 dereferenceable(8) %12, i64 noundef %13) #28
  %14 = getelementptr inbounds nuw %"class.Eigen::MapBase", ptr %9, i32 0, i32 2
  %15 = load i64, ptr %8, align 8, !tbaa !60
  call void @_ZN5Eigen8internal19variable_if_dynamicIlLin1EEC2El(ptr noundef nonnull align 8 dereferenceable(8) %14, i64 noundef %15) #28
  call void @_ZNK5Eigen7MapBaseINS_3MapIKNS_6MatrixIdLin1ELin1ELi0ELin1ELin1EEELi0ENS_6StrideILi0ELi0EEEEELi0EE11checkSanityIS7_EEvNS_8internal9enable_ifIXeqsr8internal6traitsIT_EE9AlignmentLi0EEPvE4typeE(ptr noundef nonnull align 8 dereferenceable(24) %9, ptr noundef null)
  ret void
}

; Function Attrs: inlinehint mustprogress nounwind ssp uwtable
define linkonce_odr noundef ptr @_ZN5Eigen3MapIKNS_6MatrixIdLin1ELin1ELi0ELin1ELin1EEELi0ENS_6StrideILi0ELi0EEEE20cast_to_pointer_typeEPKd(ptr noundef nonnull align 8 dereferenceable(26) %0, ptr noundef %1) #4 comdat align 2 {
  %3 = alloca ptr, align 8
  %4 = alloca ptr, align 8
  store ptr %0, ptr %3, align 8, !tbaa !316
  store ptr %1, ptr %4, align 8, !tbaa !76
  %5 = load ptr, ptr %4, align 8, !tbaa !76
  ret ptr %5
}

; Function Attrs: inlinehint mustprogress ssp uwtable
define linkonce_odr void @_ZN5Eigen8internal19variable_if_dynamicIlLi0EEC2El(ptr noundef nonnull align 1 dereferenceable(1) %0, i64 noundef %1) unnamed_addr #6 comdat align 2 {
  %3 = alloca ptr, align 8
  %4 = alloca i64, align 8
  store ptr %0, ptr %3, align 8, !tbaa !320
  store i64 %1, ptr %4, align 8, !tbaa !60
  call void @_ZN5Eigen8internal22ignore_unused_variableIlEEvRKT_(ptr noundef nonnull align 8 dereferenceable(8) %4)
  ret void
}

; Function Attrs: mustprogress nounwind ssp uwtable
define linkonce_odr noundef ptr @_ZNKSt6vectorIN5Eigen6MatrixIdLi3ELi1ELi0ELi3ELi1EEESaIS2_EE11_M_data_ptrIS2_EEPT_S7_(ptr noundef nonnull align 8 dereferenceable(24) %0, ptr noundef %1) #1 comdat align 2 {
  %3 = alloca ptr, align 8
  %4 = alloca ptr, align 8
  store ptr %0, ptr %3, align 8, !tbaa !339
  store ptr %1, ptr %4, align 8, !tbaa !21
  %5 = load ptr, ptr %4, align 8, !tbaa !21
  ret ptr %5
}

; Function Attrs: inlinehint mustprogress ssp uwtable
define linkonce_odr void @_ZN5Eigen3MapIKNS_6MatrixIdLin1ELin1ELi0ELin1ELin1EEELi0ENS_6StrideILi0ELi0EEEEC2EPKdllRKS5_(ptr noundef nonnull align 8 dereferenceable(26) %0, ptr noundef %1, i64 noundef %2, i64 noundef %3, ptr noundef nonnull align 1 dereferenceable(2) %4) unnamed_addr #6 comdat align 2 {
  %6 = alloca ptr, align 8
  %7 = alloca ptr, align 8
  %8 = alloca i64, align 8
  %9 = alloca i64, align 8
  %10 = alloca ptr, align 8
  store ptr %0, ptr %6, align 8, !tbaa !316
  store ptr %1, ptr %7, align 8, !tbaa !76
  store i64 %2, ptr %8, align 8, !tbaa !60
  store i64 %3, ptr %9, align 8, !tbaa !60
  store ptr %4, ptr %10, align 8, !tbaa !318
  %11 = load ptr, ptr %6, align 8
  %12 = load ptr, ptr %7, align 8, !tbaa !76
  %13 = call noundef ptr @_ZN5Eigen3MapIKNS_6MatrixIdLin1ELin1ELi0ELin1ELin1EEELi0ENS_6StrideILi0ELi0EEEE20cast_to_pointer_typeEPKd(ptr noundef nonnull align 8 dereferenceable(26) %11, ptr noundef %12)
  %14 = load i64, ptr %8, align 8, !tbaa !60
  %15 = load i64, ptr %9, align 8, !tbaa !60
  call void @_ZN5Eigen7MapBaseINS_3MapIKNS_6MatrixIdLin1ELin1ELi0ELin1ELin1EEELi0ENS_6StrideILi0ELi0EEEEELi0EEC2EPKdll(ptr noundef nonnull align 8 dereferenceable(24) %11, ptr noundef %13, i64 noundef %14, i64 noundef %15)
  %16 = getelementptr inbounds i8, ptr %11, i64 24
  %17 = load ptr, ptr %10, align 8, !tbaa !318
  call void @_ZN5Eigen6StrideILi0ELi0EEC2ERKS1_(ptr noundef nonnull align 1 dereferenceable(2) %16, ptr noundef nonnull align 1 dereferenceable(2) %17)
  ret void
}

; Function Attrs: mustprogress ssp uwtable
define linkonce_odr void @_ZN5Eigen6StrideILi0ELi0EEC2Ev(ptr noundef nonnull align 1 dereferenceable(2) %0) unnamed_addr #3 comdat align 2 {
  %2 = alloca ptr, align 8
  store ptr %0, ptr %2, align 8, !tbaa !318
  %3 = load ptr, ptr %2, align 8
  call void @_ZN5Eigen8internal19variable_if_dynamicIlLi0EEC2El(ptr noundef nonnull align 1 dereferenceable(1) %3, i64 noundef 0)
  %4 = getelementptr inbounds i8, ptr %3, i64 1
  call void @_ZN5Eigen8internal19variable_if_dynamicIlLi0EEC2El(ptr noundef nonnull align 1 dereferenceable(1) %4, i64 noundef 0)
  ret void
}

; Function Attrs: mustprogress nounwind ssp uwtable
define linkonce_odr noundef i64 @_ZNKSt6vectorIN5Eigen6MatrixIdLi3ELi1ELi0ELi3ELi1EEESaIS2_EE4sizeEv(ptr noundef nonnull align 8 dereferenceable(24) %0) #1 comdat align 2 {
  %2 = alloca ptr, align 8
  store ptr %0, ptr %2, align 8, !tbaa !339
  %3 = load ptr, ptr %2, align 8
  %4 = getelementptr inbounds nuw %"struct.std::_Vector_base.58", ptr %3, i32 0, i32 0
  %5 = getelementptr inbounds nuw %"struct.std::_Vector_base<Eigen::Matrix<double, 3, 1>, std::allocator<Eigen::Matrix<double, 3, 1>>>::_Vector_impl_data", ptr %4, i32 0, i32 1
  %6 = load ptr, ptr %5, align 8, !tbaa !343
  %7 = getelementptr inbounds nuw %"struct.std::_Vector_base.58", ptr %3, i32 0, i32 0
  %8 = getelementptr inbounds nuw %"struct.std::_Vector_base<Eigen::Matrix<double, 3, 1>, std::allocator<Eigen::Matrix<double, 3, 1>>>::_Vector_impl_data", ptr %7, i32 0, i32 0
  %9 = load ptr, ptr %8, align 8, !tbaa !341
  %10 = ptrtoint ptr %6 to i64
  %11 = ptrtoint ptr %9 to i64
  %12 = sub i64 %10, %11
  %13 = sdiv exact i64 %12, 24
  ret i64 %13
}

; Function Attrs: mustprogress nounwind ssp uwtable
define linkonce_odr noundef ptr @_ZNKSt6vectorIN5Eigen6MatrixIdLi3ELi1ELi0ELi3ELi1EEESaIS2_EE4dataEv(ptr noundef nonnull align 8 dereferenceable(24) %0) #1 comdat align 2 {
  %2 = alloca ptr, align 8
  store ptr %0, ptr %2, align 8, !tbaa !339
  %3 = load ptr, ptr %2, align 8
  %4 = getelementptr inbounds nuw %"struct.std::_Vector_base.58", ptr %3, i32 0, i32 0
  %5 = getelementptr inbounds nuw %"struct.std::_Vector_base<Eigen::Matrix<double, 3, 1>, std::allocator<Eigen::Matrix<double, 3, 1>>>::_Vector_impl_data", ptr %4, i32 0, i32 0
  %6 = load ptr, ptr %5, align 8, !tbaa !341
  %7 = call noundef ptr @_ZNKSt6vectorIN5Eigen6MatrixIdLi3ELi1ELi0ELi3ELi1EEESaIS2_EE11_M_data_ptrIS2_EEPT_S7_(ptr noundef nonnull align 8 dereferenceable(24) %3, ptr noundef %6) #28
  ret ptr %7
}

; Function Attrs: mustprogress nounwind ssp uwtable
define linkonce_odr noundef i32 @_ZNK6open3d8geometry8Geometry15GetGeometryTypeEv(ptr noundef nonnull align 8 dereferenceable(48) %0) #1 comdat align 2 {
  %2 = alloca ptr, align 8
  store ptr %0, ptr %2, align 8, !tbaa !312
  %3 = load ptr, ptr %2, align 8
  %4 = getelementptr inbounds nuw %"class.open3d::geometry::Geometry", ptr %3, i32 0, i32 1
  %5 = load i32, ptr %4, align 8, !tbaa !334
  ret i32 %5
}

; Function Attrs: mustprogress ssp uwtable
define noundef zeroext i1 @_ZN6open3d8geometry11KDTreeFlann11SetGeometryERKNS0_8GeometryE(ptr noundef nonnull align 8 dereferenceable(32) %0, ptr noundef nonnull align 8 dereferenceable(48) %1) #3 align 2 {
  %3 = alloca i1, align 1
  %4 = alloca ptr, align 8
  %5 = alloca ptr, align 8
  %6 = alloca %"class.Eigen::Map", align 8
  %7 = alloca %"class.Eigen::Stride", align 1
  %8 = alloca %"class.Eigen::Map", align 8
  %9 = alloca %"class.Eigen::Stride", align 1
  store ptr %0, ptr %4, align 8, !tbaa !19
  store ptr %1, ptr %5, align 8, !tbaa !312
  %10 = load ptr, ptr %4, align 8
  %11 = load ptr, ptr %5, align 8, !tbaa !312
  %12 = call noundef i32 @_ZNK6open3d8geometry8Geometry15GetGeometryTypeEv(ptr noundef nonnull align 8 dereferenceable(48) %11)
  switch i32 %12, label %30 [
    i32 1, label %13
    i32 6, label %21
    i32 7, label %21
    i32 8, label %29
    i32 0, label %29
  ]

13:                                               ; preds = %2
  call void @llvm.lifetime.start.p0(i64 32, ptr %6) #28
  %14 = load ptr, ptr %5, align 8, !tbaa !312
  %15 = getelementptr inbounds nuw %"class.open3d::geometry::PointCloud", ptr %14, i32 0, i32 1
  %16 = call noundef ptr @_ZNKSt6vectorIN5Eigen6MatrixIdLi3ELi1ELi0ELi3ELi1EEESaIS2_EE4dataEv(ptr noundef nonnull align 8 dereferenceable(24) %15) #28
  %17 = load ptr, ptr %5, align 8, !tbaa !312
  %18 = getelementptr inbounds nuw %"class.open3d::geometry::PointCloud", ptr %17, i32 0, i32 1
  %19 = call noundef i64 @_ZNKSt6vectorIN5Eigen6MatrixIdLi3ELi1ELi0ELi3ELi1EEESaIS2_EE4sizeEv(ptr noundef nonnull align 8 dereferenceable(24) %18) #28
  call void @llvm.lifetime.start.p0(i64 2, ptr %7) #28
  call void @_ZN5Eigen6StrideILi0ELi0EEC2Ev(ptr noundef nonnull align 1 dereferenceable(2) %7)
  call void @_ZN5Eigen3MapIKNS_6MatrixIdLin1ELin1ELi0ELin1ELin1EEELi0ENS_6StrideILi0ELi0EEEEC2EPKdllRKS5_(ptr noundef nonnull align 8 dereferenceable(26) %6, ptr noundef %16, i64 noundef 3, i64 noundef %19, ptr noundef nonnull align 1 dereferenceable(2) %7)
  %20 = call noundef zeroext i1 @_ZN6open3d8geometry11KDTreeFlann10SetRawDataERKN5Eigen3MapIKNS2_6MatrixIdLin1ELin1ELi0ELin1ELin1EEELi0ENS2_6StrideILi0ELi0EEEEE(ptr noundef nonnull align 8 dereferenceable(32) %10, ptr noundef nonnull align 8 dereferenceable(26) %6)
  store i1 %20, ptr %3, align 1
  call void @llvm.lifetime.end.p0(i64 2, ptr %7) #28
  call void @llvm.lifetime.end.p0(i64 32, ptr %6) #28
  br label %31

21:                                               ; preds = %2, %2
  call void @llvm.lifetime.start.p0(i64 32, ptr %8) #28
  %22 = load ptr, ptr %5, align 8, !tbaa !312
  %23 = getelementptr inbounds nuw %"class.open3d::geometry::MeshBase", ptr %22, i32 0, i32 1
  %24 = call noundef ptr @_ZNKSt6vectorIN5Eigen6MatrixIdLi3ELi1ELi0ELi3ELi1EEESaIS2_EE4dataEv(ptr noundef nonnull align 8 dereferenceable(24) %23) #28
  %25 = load ptr, ptr %5, align 8, !tbaa !312
  %26 = getelementptr inbounds nuw %"class.open3d::geometry::MeshBase", ptr %25, i32 0, i32 1
  %27 = call noundef i64 @_ZNKSt6vectorIN5Eigen6MatrixIdLi3ELi1ELi0ELi3ELi1EEESaIS2_EE4sizeEv(ptr noundef nonnull align 8 dereferenceable(24) %26) #28
  call void @llvm.lifetime.start.p0(i64 2, ptr %9) #28
  call void @_ZN5Eigen6StrideILi0ELi0EEC2Ev(ptr noundef nonnull align 1 dereferenceable(2) %9)
  call void @_ZN5Eigen3MapIKNS_6MatrixIdLin1ELin1ELi0ELin1ELin1EEELi0ENS_6StrideILi0ELi0EEEEC2EPKdllRKS5_(ptr noundef nonnull align 8 dereferenceable(26) %8, ptr noundef %24, i64 noundef 3, i64 noundef %27, ptr noundef nonnull align 1 dereferenceable(2) %9)
  %28 = call noundef zeroext i1 @_ZN6open3d8geometry11KDTreeFlann10SetRawDataERKN5Eigen3MapIKNS2_6MatrixIdLin1ELin1ELi0ELin1ELin1EEELi0ENS2_6StrideILi0ELi0EEEEE(ptr noundef nonnull align 8 dereferenceable(32) %10, ptr noundef nonnull align 8 dereferenceable(26) %8)
  store i1 %28, ptr %3, align 1
  call void @llvm.lifetime.end.p0(i64 2, ptr %9) #28
  call void @llvm.lifetime.end.p0(i64 32, ptr %8) #28
  br label %31

29:                                               ; preds = %2, %2
  br label %30

30:                                               ; preds = %2, %29
  call void @_ZN6open3d7utility6Logger11LogWarning_IJEEEvPKciS4_S4_DpOT_(ptr noundef @.str.6, i32 noundef 59, ptr noundef @__PRETTY_FUNCTION__._ZN6open3d8geometry11KDTreeFlann11SetGeometryERKNS0_8GeometryE, ptr noundef @.str.7)
  store i1 false, ptr %3, align 1
  br label %31

31:                                               ; preds = %30, %21, %13
  %32 = load i1, ptr %3, align 1
  ret i1 %32
}