; Function Attrs: mustprogress ssp uwtable
define noundef zeroext i1 @_ZN6open3d8geometry11KDTreeFlann11SetGeometryERKNS0_8GeometryE(ptr noundef nonnull align 8 dereferenceable(32) %0, ptr noundef nonnull readonly align 8 captures(none) dereferenceable(48) %1) local_unnamed_addr #1 align 2 {
  %3 = alloca %"class.Eigen::Map", align 8
  %4 = alloca %"class.Eigen::Map", align 8
  %5 = getelementptr inbounds nuw i8, ptr %1, i64 8
  %6 = load i32, ptr %5, align 8, !tbaa !136
  switch i32 %6, label %31 [
    i32 1, label %7
    i32 6, label %19
    i32 7, label %19
  ]

7:                                                ; preds = %2
  call void @llvm.lifetime.start.p0(i64 32, ptr nonnull %3) #30
  %8 = getelementptr inbounds nuw i8, ptr %1, i64 48
  %9 = load ptr, ptr %8, align 8, !tbaa !142
  %10 = getelementptr inbounds nuw i8, ptr %1, i64 56
  %11 = load ptr, ptr %10, align 8, !tbaa !145
  %12 = ptrtoint ptr %11 to i64
  %13 = ptrtoint ptr %9 to i64
  %14 = sub i64 %12, %13
  %15 = sdiv exact i64 %14, 24
  store ptr %9, ptr %3, align 8, !tbaa !124
  %16 = getelementptr inbounds nuw i8, ptr %3, i64 8
  store i64 3, ptr %16, align 8, !tbaa !127
  %17 = getelementptr inbounds nuw i8, ptr %3, i64 16
  store i64 %15, ptr %17, align 8, !tbaa !127
  %18 = call noundef zeroext i1 @_ZN6open3d8geometry11KDTreeFlann10SetRawDataERKN5Eigen3MapIKNS2_6MatrixIdLin1ELin1ELi0ELin1ELin1EEELi0ENS2_6StrideILi0ELi0EEEEE(ptr noundef nonnull align 8 dereferenceable(32) %0, ptr noundef nonnull align 8 dereferenceable(26) %3)
  call void @llvm.lifetime.end.p0(i64 32, ptr nonnull %3) #30
  br label %32

19:                                               ; preds = %2, %2
  call void @llvm.lifetime.start.p0(i64 32, ptr nonnull %4) #30
  %20 = getelementptr inbounds nuw i8, ptr %1, i64 48
  %21 = load ptr, ptr %20, align 8, !tbaa !142
  %22 = getelementptr inbounds nuw i8, ptr %1, i64 56
  %23 = load ptr, ptr %22, align 8, !tbaa !145
  %24 = ptrtoint ptr %23 to i64
  %25 = ptrtoint ptr %21 to i64
  %26 = sub i64 %24, %25
  %27 = sdiv exact i64 %26, 24
  store ptr %21, ptr %4, align 8, !tbaa !124
  %28 = getelementptr inbounds nuw i8, ptr %4, i64 8
  store i64 3, ptr %28, align 8, !tbaa !127
  %29 = getelementptr inbounds nuw i8, ptr %4, i64 16
  store i64 %27, ptr %29, align 8, !tbaa !127
  %30 = call noundef zeroext i1 @_ZN6open3d8geometry11KDTreeFlann10SetRawDataERKN5Eigen3MapIKNS2_6MatrixIdLin1ELin1ELi0ELin1ELin1EEELi0ENS2_6StrideILi0ELi0EEEEE(ptr noundef nonnull align 8 dereferenceable(32) %0, ptr noundef nonnull align 8 dereferenceable(26) %4)
  call void @llvm.lifetime.end.p0(i64 32, ptr nonnull %4) #30
  br label %32

31:                                               ; preds = %2
  tail call void @_ZN6open3d7utility6Logger11LogWarning_IJEEEvPKciS4_S4_DpOT_(ptr noundef nonnull @.str.6, i32 noundef 59, ptr noundef nonnull @__PRETTY_FUNCTION__._ZN6open3d8geometry11KDTreeFlann11SetGeometryERKNS0_8GeometryE, ptr noundef nonnull @.str.7)
  br label %32

32:                                               ; preds = %31, %19, %7
  %.0 = phi i1 [ false, %31 ], [ %30, %19 ], [ %18, %7 ]
  ret i1 %.0
}